target datalayout = "e-m:e-p270:32:32-p271:32:32-p272:64:64-i64:64-i128:128-f80:128-n8:16:32:64-S128"
target triple = "x86_64-pc-linux-gnu"

%"class.vcg::Point3" = type { [3 x float] }
%"class.vcg::Transform" = type { %"class.vcg::Similarityf", %"class.vcg::Point3", float }
%"class.vcg::Similarityf" = type { %"class.vcg::Similarity" }
%"class.vcg::Similarity" = type { %"class.vcg::Quaternion", %"class.vcg::Point3", float }
%"class.vcg::Quaternion" = type { %"class.vcg::Point4" }
%"class.vcg::Point4" = type { [4 x float] }
%"class.vcg::Trackball" = type <{ %"class.vcg::Transform", %"class.vcg::View", i32, ptr, ptr, ptr, %"class.std::map", %"class.vcg::Similarityf", %"class.vcg::Similarityf", %"class.vcg::Similarityf", %"class.vcg::Point3", [4 x i8], %"class.std::vector", i8, [3 x i8], i32, i32, %"class.vcg::Quaternion", i8, i8, [2 x i8], %"class.std::__cxx11::list", i32, i8, [3 x i8] }>
%"class.vcg::View" = type <{ %"class.vcg::Matrix44", %"class.vcg::Matrix44", %"class.vcg::Matrix44", %"class.vcg::Matrix44", [4 x i32], i8, [3 x i8] }>
%"class.vcg::Matrix44" = type { %"struct.std::array" }
%"struct.std::array" = type { [16 x float] }
%"class.std::map" = type { %"class.std::_Rb_tree" }
%"class.std::_Rb_tree" = type { %"struct.std::_Rb_tree<int, std::pair<const int, vcg::TrackMode *>, std::_Select1st<std::pair<const int, vcg::TrackMode *>>, std::less<int>>::_Rb_tree_impl" }
%"struct.std::_Rb_tree<int, std::pair<const int, vcg::TrackMode *>, std::_Select1st<std::pair<const int, vcg::TrackMode *>>, std::less<int>>::_Rb_tree_impl" = type { %"struct.std::_Rb_tree_key_compare", %"struct.std::_Rb_tree_header" }
%"struct.std::_Rb_tree_key_compare" = type { %"struct.std::less" }
%"struct.std::less" = type { i8 }
%"struct.std::_Rb_tree_header" = type { %"struct.std::_Rb_tree_node_base", i64 }
%"struct.std::_Rb_tree_node_base" = type { i32, ptr, ptr, ptr }
%"class.std::vector" = type { %"struct.std::_Vector_base" }
%"struct.std::_Vector_base" = type { %"struct.std::_Vector_base<vcg::Point3<float>, std::allocator<vcg::Point3<float>>>::_Vector_impl" }
%"struct.std::_Vector_base<vcg::Point3<float>, std::allocator<vcg::Point3<float>>>::_Vector_impl" = type { %"struct.std::_Vector_base<vcg::Point3<float>, std::allocator<vcg::Point3<float>>>::_Vector_impl_data" }
%"struct.std::_Vector_base<vcg::Point3<float>, std::allocator<vcg::Point3<float>>>::_Vector_impl_data" = type { ptr, ptr, ptr }
%"class.std::__cxx11::list" = type { %"class.std::__cxx11::_List_base" }
%"class.std::__cxx11::_List_base" = type { %"struct.std::__cxx11::_List_base<vcg::Transform, std::allocator<vcg::Transform>>::_List_impl" }
%"struct.std::__cxx11::_List_base<vcg::Transform, std::allocator<vcg::Transform>>::_List_impl" = type { %"struct.std::__detail::_List_node_header" }
%"struct.std::__detail::_List_node_header" = type { %"struct.std::__detail::_List_node_base", i64 }
%"struct.std::__detail::_List_node_base" = type { ptr, ptr }

; Function Attrs: mustprogress nounwind uwtable
define linkonce_odr void @_ZN3vcg6Point3IfEC2Efff(ptr noundef nonnull align 4 dereferenceable(12) %0, float noundef %1, float noundef %2, float noundef %3) unnamed_addr #4 comdat align 2 {
  %5 = alloca ptr, align 8
  %6 = alloca float, align 4
  %7 = alloca float, align 4
  %8 = alloca float, align 4
  store ptr %0, ptr %5, align 8
  store float %1, ptr %6, align 4
  store float %2, ptr %7, align 4
  store float %3, ptr %8, align 4
  %9 = load ptr, ptr %5, align 8
  %10 = load float, ptr %6, align 4
  %11 = getelementptr inbounds %"class.vcg::Point3", ptr %9, i32 0, i32 0
  %12 = getelementptr inbounds [3 x float], ptr %11, i64 0, i64 0
  store float %10, ptr %12, align 4
  %13 = load float, ptr %7, align 4
  %14 = getelementptr inbounds %"class.vcg::Point3", ptr %9, i32 0, i32 0
  %15 = getelementptr inbounds [3 x float], ptr %14, i64 0, i64 1
  store float %13, ptr %15, align 4
  %16 = load float, ptr %8, align 4
  %17 = getelementptr inbounds %"class.vcg::Point3", ptr %9, i32 0, i32 0
  %18 = getelementptr inbounds [3 x float], ptr %17, i64 0, i64 2
  store float %16, ptr %18, align 4
  ret void
}

; Function Attrs: mustprogress nounwind uwtable
define linkonce_odr noundef nonnull align 4 dereferenceable(4) ptr @_ZN3vcg6Point3IfEixEi(ptr noundef nonnull align 4 dereferenceable(12) %0, i32 noundef %1) #4 comdat align 2 {
  %3 = alloca ptr, align 8
  %4 = alloca i32, align 4
  store ptr %0, ptr %3, align 8
  store i32 %1, ptr %4, align 4
  %5 = load ptr, ptr %3, align 8
  %6 = getelementptr inbounds %"class.vcg::Point3", ptr %5, i32 0, i32 0
  %7 = load i32, ptr %4, align 4
  %8 = sext i32 %7 to i64
  %9 = getelementptr inbounds [3 x float], ptr %6, i64 0, i64 %8
  ret ptr %9
}

; Function Attrs: mustprogress uwtable
define void @_ZN3vcg9Trackball9MouseMoveEii(ptr noundef nonnull align 8 dereferenceable(597) %0, i32 noundef %1, i32 noundef %2) #16 align 2 {
  %4 = alloca ptr, align 8
  %5 = alloca i32, align 4
  %6 = alloca i32, align 4
  %7 = alloca %"class.vcg::Point3", align 4
  %8 = alloca %"class.vcg::Point3", align 4
  %9 = alloca { <2 x float>, float }, align 4
  store ptr %0, ptr %4, align 8
  store i32 %1, ptr %5, align 4
  store i32 %2, ptr %6, align 4
  %10 = load ptr, ptr %4, align 8
  %11 = getelementptr inbounds %"class.vcg::Trackball", ptr %10, i32 0, i32 3
  %12 = load ptr, ptr %11, align 8
  %13 = icmp eq ptr %12, null
  br i1 %13, label %14, label %15

14:                                               ; preds = %3
  br label %42

15:                                               ; preds = %3
  %16 = getelementptr inbounds %"class.vcg::Trackball", ptr %10, i32 0, i32 10
  %17 = call noundef nonnull align 4 dereferenceable(4) ptr @_ZN3vcg6Point3IfEixEi(ptr noundef nonnull align 4 dereferenceable(12) %16, i32 noundef 2)
  %18 = load float, ptr %17, align 4
  %19 = fcmp oeq float %18, -1.000000e+00
  br i1 %19, label %20, label %26

20:                                               ; preds = %15
  %21 = load i32, ptr %5, align 4
  %22 = sitofp i32 %21 to float
  %23 = load i32, ptr %6, align 4
  %24 = sitofp i32 %23 to float
  call void @_ZN3vcg6Point3IfEC2Efff(ptr noundef nonnull align 4 dereferenceable(12) %7, float noundef %22, float noundef %24, float noundef 0.000000e+00)
  %25 = getelementptr inbounds %"class.vcg::Trackball", ptr %10, i32 0, i32 10
  call void @llvm.memcpy.p0.p0.i64(ptr align 8 %25, ptr align 4 %7, i64 12, i1 false)
  br label %42

26:                                               ; preds = %15
  %27 = getelementptr inbounds %"class.vcg::Transform", ptr %10, i32 0, i32 0
  %28 = getelementptr inbounds %"class.vcg::Trackball", ptr %10, i32 0, i32 8
  call void @llvm.memcpy.p0.p0.i64(ptr align 8 %28, ptr align 8 %27, i64 32, i1 false)
  %29 = getelementptr inbounds %"class.vcg::Trackball", ptr %10, i32 0, i32 3
  %30 = load ptr, ptr %29, align 8
  %31 = load i32, ptr %5, align 4
  %32 = sitofp i32 %31 to float
  %33 = load i32, ptr %6, align 4
  %34 = sitofp i32 %33 to float
  call void @_ZN3vcg6Point3IfEC2Efff(ptr noundef nonnull align 4 dereferenceable(12) %8, float noundef %32, float noundef %34, float noundef 0.000000e+00)
  call void @llvm.memcpy.p0.p0.i64(ptr align 4 %9, ptr align 4 %8, i64 12, i1 false)
  %35 = getelementptr inbounds { <2 x float>, float }, ptr %9, i32 0, i32 0
  %36 = load <2 x float>, ptr %35, align 4
  %37 = getelementptr inbounds { <2 x float>, float }, ptr %9, i32 0, i32 1
  %38 = load float, ptr %37, align 4
  %39 = load ptr, ptr %30, align 8
  %40 = getelementptr inbounds ptr, ptr %39, i64 2
  %41 = load ptr, ptr %40, align 8
  call void %41(ptr noundef nonnull align 8 dereferenceable(8) %30, ptr noundef %10, <2 x float> %36, float %38)
  br label %42

42:                                               ; preds = %26, %20, %14
  ret void
}