; Function Attrs: mustprogress uwtable
define void @_ZN3vcg9Trackball9MouseMoveEii(ptr noundef nonnull align 8 dereferenceable(597) %0, i32 noundef %1, i32 noundef %2) local_unnamed_addr #15 align 2 {
  %4 = getelementptr inbounds i8, ptr %0, i64 328
  %5 = load ptr, ptr %4, align 8
  %6 = icmp eq ptr %5, null
  br i1 %6, label %24, label %7

7:                                                ; preds = %3
  %8 = getelementptr inbounds i8, ptr %0, i64 504
  %9 = load float, ptr %8, align 8
  %10 = fcmp oeq float %9, -1.000000e+00
  br i1 %10, label %11, label %16

11:                                               ; preds = %7
  %12 = getelementptr inbounds i8, ptr %0, i64 496
  %13 = insertelement <2 x i32> poison, i32 %1, i64 0
  %14 = insertelement <2 x i32> %13, i32 %2, i64 1
  %15 = sitofp <2 x i32> %14 to <2 x float>
  store <2 x float> %15, ptr %12, align 8
  store float 0.000000e+00, ptr %8, align 8
  br label %24

16:                                               ; preds = %7
  %17 = getelementptr inbounds i8, ptr %0, i64 432
  tail call void @llvm.memcpy.p0.p0.i64(ptr noundef nonnull align 8 dereferenceable(32) %17, ptr noundef nonnull align 8 dereferenceable(32) %0, i64 32, i1 false)
  %18 = insertelement <2 x i32> poison, i32 %1, i64 0
  %19 = insertelement <2 x i32> %18, i32 %2, i64 1
  %20 = sitofp <2 x i32> %19 to <2 x float>
  %21 = load ptr, ptr %5, align 8
  %22 = getelementptr inbounds i8, ptr %21, i64 16
  %23 = load ptr, ptr %22, align 8
  tail call void %23(ptr noundef nonnull align 8 dereferenceable(8) %5, ptr noundef nonnull %0, <2 x float> %20, float 0.000000e+00)
  br label %24

24:                                               ; preds = %3, %16, %11
  ret void
}